; Function Attrs: nounwind uwtable
define dso_local ptr @map_partition_varattnos(ptr noundef %0, i32 noundef %1, ptr noundef readonly captures(none) %2, ptr noundef readonly captures(none) %3) local_unnamed_addr #0 {
  %5 = alloca i8, align 1
  %.not = icmp eq ptr %0, null
  br i1 %.not, label %17, label %6

6:                                                ; preds = %4
  call void @llvm.lifetime.start.p0(i64 1, ptr nonnull %5) #5
  %7 = getelementptr inbounds nuw i8, ptr %2, i64 64
  %8 = load ptr, ptr %7, align 8
  %9 = getelementptr inbounds nuw i8, ptr %3, i64 64
  %10 = load ptr, ptr %9, align 8
  %11 = tail call ptr @build_attrmap_by_name(ptr noundef %8, ptr noundef %10, i1 noundef zeroext false) #5
  %12 = getelementptr inbounds nuw i8, ptr %2, i64 56
  %13 = load ptr, ptr %12, align 8
  %14 = getelementptr inbounds nuw i8, ptr %13, i64 72
  %15 = load i32, ptr %14, align 4
  %16 = call ptr @map_variable_attnos(ptr noundef nonnull %0, i32 noundef %1, i32 noundef 0, ptr noundef %11, i32 noundef %15, ptr noundef nonnull %5) #5
  call void @llvm.lifetime.end.p0(i64 1, ptr nonnull %5) #5
  br label %17

17:                                               ; preds = %6, %4
  %.0 = phi ptr [ %16, %6 ], [ null, %4 ]
  ret ptr %.0
}